target datalayout = "e-m:e-p270:32:32-p271:32:32-p272:64:64-i64:64-i128:128-f80:128-n8:16:32:64-S128"
target triple = "x86_64-pc-linux-gnu"

; Function Attrs: inlinehint mustprogress nounwind uwtable
define internal noundef i32 @_ZL6cvCeilf(float noundef %0) #2 {
  %2 = alloca float, align 4
  store float %0, ptr %2, align 4, !tbaa !14
  %3 = load float, ptr %2, align 4, !tbaa !14
  %4 = call float @llvm.ceil.f32(float %3)
  %5 = fptosi float %4 to i32
  ret i32 %5
}

; Function Attrs: mustprogress uwtable
define hidden noundef i32 @_Z21fed_tau_by_cycle_timeRKfS0_RKbRSt6vectorIfSaIfEE(ptr noundef nonnull align 4 dereferenceable(4) %0, ptr noundef nonnull align 4 dereferenceable(4) %1, ptr noundef nonnull align 1 dereferenceable(1) %2, ptr noundef nonnull align 8 dereferenceable(24) %3) #0 {
  %5 = alloca ptr, align 8
  %6 = alloca ptr, align 8
  %7 = alloca ptr, align 8
  %8 = alloca ptr, align 8
  %9 = alloca i32, align 4
  %10 = alloca float, align 4
  store ptr %0, ptr %5, align 8, !tbaa !3
  store ptr %1, ptr %6, align 8, !tbaa !3
  store ptr %2, ptr %7, align 8, !tbaa !10
  store ptr %3, ptr %8, align 8, !tbaa !12
  call void @llvm.lifetime.start.p0(i64 4, ptr %9) #12
  store i32 0, ptr %9, align 4, !tbaa !16
  call void @llvm.lifetime.start.p0(i64 4, ptr %10) #12
  store float 0.000000e+00, ptr %10, align 4, !tbaa !14
  %11 = load ptr, ptr %5, align 8, !tbaa !3
  %12 = load float, ptr %11, align 4, !tbaa !14
  %13 = fmul float 3.000000e+00, %12
  %14 = load ptr, ptr %6, align 8, !tbaa !3
  %15 = load float, ptr %14, align 4, !tbaa !14
  %16 = fdiv float %13, %15
  %17 = fadd float %16, 2.500000e-01
  %18 = call float @sqrtf(float noundef %17) #12, !tbaa !16
  %19 = fsub float %18, 5.000000e-01
  %20 = fsub float %19, 0x3E45798EE0000000
  %21 = call noundef i32 @_ZL6cvCeilf(float noundef %20)
  store i32 %21, ptr %9, align 4, !tbaa !16
  %22 = load ptr, ptr %5, align 8, !tbaa !3
  %23 = load float, ptr %22, align 4, !tbaa !14
  %24 = fmul float 3.000000e+00, %23
  %25 = load ptr, ptr %6, align 8, !tbaa !3
  %26 = load float, ptr %25, align 4, !tbaa !14
  %27 = load i32, ptr %9, align 4, !tbaa !16
  %28 = load i32, ptr %9, align 4, !tbaa !16
  %29 = add nsw i32 %28, 1
  %30 = mul nsw i32 %27, %29
  %31 = sitofp i32 %30 to float
  %32 = fmul float %26, %31
  %33 = fdiv float %24, %32
  store float %33, ptr %10, align 4, !tbaa !14
  %34 = load ptr, ptr %6, align 8, !tbaa !3
  %35 = load ptr, ptr %7, align 8, !tbaa !10
  %36 = load ptr, ptr %8, align 8, !tbaa !12
  %37 = call noundef i32 @_Z16fed_tau_internalRKiRKfS2_RKbRSt6vectorIfSaIfEE(ptr noundef nonnull align 4 dereferenceable(4) %9, ptr noundef nonnull align 4 dereferenceable(4) %10, ptr noundef nonnull align 4 dereferenceable(4) %34, ptr noundef nonnull align 1 dereferenceable(1) %35, ptr noundef nonnull align 8 dereferenceable(24) %36)
  call void @llvm.lifetime.end.p0(i64 4, ptr %10) #12
  call void @llvm.lifetime.end.p0(i64 4, ptr %9) #12
  ret i32 %37
}

; Function Attrs: mustprogress uwtable
define hidden noundef i32 @_Z23fed_tau_by_process_timeRKfRKiS0_RKbRSt6vectorIfSaIfEE(ptr noundef nonnull align 4 dereferenceable(4) %0, ptr noundef nonnull align 4 dereferenceable(4) %1, ptr noundef nonnull align 4 dereferenceable(4) %2, ptr noundef nonnull align 1 dereferenceable(1) %3, ptr noundef nonnull align 8 dereferenceable(24) %4) #0 {
  %6 = alloca ptr, align 8
  %7 = alloca ptr, align 8
  %8 = alloca ptr, align 8
  %9 = alloca ptr, align 8
  %10 = alloca ptr, align 8
  %11 = alloca float, align 4
  store ptr %0, ptr %6, align 8, !tbaa !3
  store ptr %1, ptr %7, align 8, !tbaa !8
  store ptr %2, ptr %8, align 8, !tbaa !3
  store ptr %3, ptr %9, align 8, !tbaa !10
  store ptr %4, ptr %10, align 8, !tbaa !12
  call void @llvm.lifetime.start.p0(i64 4, ptr %11) #12
  %12 = load ptr, ptr %6, align 8, !tbaa !3
  %13 = load float, ptr %12, align 4, !tbaa !14
  %14 = load ptr, ptr %7, align 8, !tbaa !8
  %15 = load i32, ptr %14, align 4, !tbaa !16
  %16 = sitofp i32 %15 to float
  %17 = fdiv float %13, %16
  store float %17, ptr %11, align 4, !tbaa !14
  %18 = load ptr, ptr %8, align 8, !tbaa !3
  %19 = load ptr, ptr %9, align 8, !tbaa !10
  %20 = load ptr, ptr %10, align 8, !tbaa !12
  %21 = call noundef i32 @_Z21fed_tau_by_cycle_timeRKfS0_RKbRSt6vectorIfSaIfEE(ptr noundef nonnull align 4 dereferenceable(4) %11, ptr noundef nonnull align 4 dereferenceable(4) %18, ptr noundef nonnull align 1 dereferenceable(1) %19, ptr noundef nonnull align 8 dereferenceable(24) %20)
  call void @llvm.lifetime.end.p0(i64 4, ptr %11) #12
  ret i32 %21
}