; Function Attrs: mustprogress uwtable
define hidden noundef i32 @_Z23fed_tau_by_process_timeRKfRKiS0_RKbRSt6vectorIfSaIfEE(ptr noundef nonnull readonly align 4 captures(none) dereferenceable(4) %0, ptr noundef nonnull readonly align 4 captures(none) dereferenceable(4) %1, ptr noundef nonnull readonly align 4 captures(none) dereferenceable(4) %2, ptr noundef nonnull readonly align 1 captures(none) dereferenceable(1) %3, ptr noundef nonnull align 8 captures(none) dereferenceable(24) %4) local_unnamed_addr #0 {
  %6 = alloca i32, align 4
  %7 = alloca float, align 4
  %8 = load float, ptr %0, align 4, !tbaa !3
  %9 = load i32, ptr %1, align 4, !tbaa !7
  %10 = sitofp i32 %9 to float
  %11 = fdiv float %8, %10
  call void @llvm.lifetime.start.p0(i64 4, ptr nonnull %6) #10
  call void @llvm.lifetime.start.p0(i64 4, ptr nonnull %7) #10
  %12 = fmul float %11, 3.000000e+00
  %13 = load float, ptr %2, align 4, !tbaa !3
  %14 = fdiv float %12, %13
  %15 = fadd float %14, 2.500000e-01
  %16 = tail call float @sqrtf(float noundef %15) #10, !tbaa !7
  %17 = fadd float %16, -5.000000e-01
  %18 = fadd float %17, 0xBE45798EE0000000
  %19 = tail call float @llvm.ceil.f32(float %18)
  %20 = fptosi float %19 to i32
  store i32 %20, ptr %6, align 4, !tbaa !7
  %21 = add nsw i32 %20, 1
  %22 = mul nsw i32 %21, %20
  %23 = sitofp i32 %22 to float
  %24 = fmul float %13, %23
  %25 = fdiv float %12, %24
  store float %25, ptr %7, align 4, !tbaa !3
  %26 = call noundef i32 @_Z16fed_tau_internalRKiRKfS2_RKbRSt6vectorIfSaIfEE(ptr noundef nonnull align 4 dereferenceable(4) %6, ptr noundef nonnull align 4 dereferenceable(4) %7, ptr noundef nonnull readonly align 4 dereferenceable(4) %2, ptr noundef nonnull readonly align 1 dereferenceable(1) %3, ptr noundef nonnull align 8 dereferenceable(24) %4)
  call void @llvm.lifetime.end.p0(i64 4, ptr nonnull %7) #10
  call void @llvm.lifetime.end.p0(i64 4, ptr nonnull %6) #10
  ret i32 %26
}